target datalayout = "e-m:e-p270:32:32-p271:32:32-p272:64:64-i64:64-i128:128-f80:128-n8:16:32:64-S128"
target triple = "x86_64-pc-linux-gnu"

%struct.FunctionCallInfoBaseData = type { ptr, ptr, ptr, i32, i8, i16, [0 x %struct.NullableDatum] }
%struct.NullableDatum = type { i64, i8 }
%struct.StringInfoData = type { ptr, i32, i32, i32 }
%struct.ArrayBuildStateArr = type { ptr, ptr, ptr, i32, i32, i32, i32, i32, [6 x i32], [6 x i32], i32, i32, i8 }

; Function Attrs: inlinehint nounwind uwtable
define internal void @pq_writeint32(ptr noalias noundef %0, i32 noundef %1) #2 {
  %3 = alloca ptr, align 8
  %4 = alloca i32, align 4
  %5 = alloca i32, align 4
  store ptr %0, ptr %3, align 8
  store i32 %1, ptr %4, align 4
  call void @llvm.lifetime.start.p0(i64 4, ptr %5) #7
  %6 = load i32, ptr %4, align 4
  %7 = call i32 @llvm.bswap.i32(i32 %6)
  store i32 %7, ptr %5, align 4
  %8 = load ptr, ptr %3, align 8
  %9 = getelementptr inbounds nuw %struct.StringInfoData, ptr %8, i32 0, i32 0
  %10 = load ptr, ptr %9, align 8
  %11 = load ptr, ptr %3, align 8
  %12 = getelementptr inbounds nuw %struct.StringInfoData, ptr %11, i32 0, i32 1
  %13 = load i32, ptr %12, align 8
  %14 = sext i32 %13 to i64
  %15 = getelementptr inbounds i8, ptr %10, i64 %14
  call void @llvm.memcpy.p0.p0.i64(ptr align 1 %15, ptr align 4 %5, i64 4, i1 false)
  %16 = load ptr, ptr %3, align 8
  %17 = getelementptr inbounds nuw %struct.StringInfoData, ptr %16, i32 0, i32 1
  %18 = load i32, ptr %17, align 8
  %19 = sext i32 %18 to i64
  %20 = add i64 %19, 4
  %21 = trunc i64 %20 to i32
  store i32 %21, ptr %17, align 8
  call void @llvm.lifetime.end.p0(i64 4, ptr %5) #7
  ret void
}

; Function Attrs: inlinehint nounwind uwtable
define internal i64 @PointerGetDatum(ptr noundef %0) #2 {
  %2 = alloca ptr, align 8
  store ptr %0, ptr %2, align 8
  %3 = load ptr, ptr %2, align 8
  %4 = ptrtoint ptr %3 to i64
  ret i64 %4
}

; Function Attrs: inlinehint nounwind uwtable
define internal void @pq_sendint32(ptr noundef %0, i32 noundef %1) #2 {
  %3 = alloca ptr, align 8
  %4 = alloca i32, align 4
  store ptr %0, ptr %3, align 8
  store i32 %1, ptr %4, align 4
  %5 = load ptr, ptr %3, align 8
  call void @enlargeStringInfo(ptr noundef %5, i32 noundef 4)
  %6 = load ptr, ptr %3, align 8
  %7 = load i32, ptr %4, align 4
  call void @pq_writeint32(ptr noundef %6, i32 noundef %7)
  ret void
}

; Function Attrs: inlinehint nounwind uwtable
define internal ptr @DatumGetPointer(i64 noundef %0) #2 {
  %2 = alloca i64, align 8
  store i64 %0, ptr %2, align 8
  %3 = load i64, ptr %2, align 8
  %4 = inttoptr i64 %3 to ptr
  ret ptr %4
}

; Function Attrs: nounwind uwtable
define dso_local i64 @array_agg_array_serialize(ptr noundef %0) #0 {
  %2 = alloca ptr, align 8
  %3 = alloca ptr, align 8
  %4 = alloca %struct.StringInfoData, align 8
  %5 = alloca ptr, align 8
  store ptr %0, ptr %2, align 8
  call void @llvm.lifetime.start.p0(i64 8, ptr %3) #7
  call void @llvm.lifetime.start.p0(i64 24, ptr %4) #7
  call void @llvm.lifetime.start.p0(i64 8, ptr %5) #7
  %6 = load ptr, ptr %2, align 8
  %7 = getelementptr inbounds nuw %struct.FunctionCallInfoBaseData, ptr %6, i32 0, i32 6
  %8 = getelementptr inbounds [0 x %struct.NullableDatum], ptr %7, i64 0, i64 0
  %9 = getelementptr inbounds nuw %struct.NullableDatum, ptr %8, i32 0, i32 0
  %10 = load i64, ptr %9, align 8
  %11 = call ptr @DatumGetPointer(i64 noundef %10)
  store ptr %11, ptr %3, align 8
  call void @pq_begintypsend(ptr noundef %4)
  %12 = load ptr, ptr %3, align 8
  %13 = getelementptr inbounds nuw %struct.ArrayBuildStateArr, ptr %12, i32 0, i32 11
  %14 = load i32, ptr %13, align 8
  call void @pq_sendint32(ptr noundef %4, i32 noundef %14)
  %15 = load ptr, ptr %3, align 8
  %16 = getelementptr inbounds nuw %struct.ArrayBuildStateArr, ptr %15, i32 0, i32 10
  %17 = load i32, ptr %16, align 4
  call void @pq_sendint32(ptr noundef %4, i32 noundef %17)
  %18 = load ptr, ptr %3, align 8
  %19 = getelementptr inbounds nuw %struct.ArrayBuildStateArr, ptr %18, i32 0, i32 4
  %20 = load i32, ptr %19, align 4
  call void @pq_sendint32(ptr noundef %4, i32 noundef %20)
  %21 = load ptr, ptr %3, align 8
  %22 = getelementptr inbounds nuw %struct.ArrayBuildStateArr, ptr %21, i32 0, i32 1
  %23 = load ptr, ptr %22, align 8
  %24 = load ptr, ptr %3, align 8
  %25 = getelementptr inbounds nuw %struct.ArrayBuildStateArr, ptr %24, i32 0, i32 4
  %26 = load i32, ptr %25, align 4
  call void @pq_sendbytes(ptr noundef %4, ptr noundef %23, i32 noundef %26)
  %27 = load ptr, ptr %3, align 8
  %28 = getelementptr inbounds nuw %struct.ArrayBuildStateArr, ptr %27, i32 0, i32 3
  %29 = load i32, ptr %28, align 8
  call void @pq_sendint32(ptr noundef %4, i32 noundef %29)
  %30 = load ptr, ptr %3, align 8
  %31 = getelementptr inbounds nuw %struct.ArrayBuildStateArr, ptr %30, i32 0, i32 5
  %32 = load i32, ptr %31, align 8
  call void @pq_sendint32(ptr noundef %4, i32 noundef %32)
  %33 = load ptr, ptr %3, align 8
  %34 = getelementptr inbounds nuw %struct.ArrayBuildStateArr, ptr %33, i32 0, i32 2
  %35 = load ptr, ptr %34, align 8
  %36 = icmp ne ptr %35, null
  br i1 %36, label %37, label %46

37:                                               ; preds = %1
  %38 = load ptr, ptr %3, align 8
  %39 = getelementptr inbounds nuw %struct.ArrayBuildStateArr, ptr %38, i32 0, i32 2
  %40 = load ptr, ptr %39, align 8
  %41 = load ptr, ptr %3, align 8
  %42 = getelementptr inbounds nuw %struct.ArrayBuildStateArr, ptr %41, i32 0, i32 5
  %43 = load i32, ptr %42, align 8
  %44 = add i32 %43, 7
  %45 = sdiv i32 %44, 8
  call void @pq_sendbytes(ptr noundef %4, ptr noundef %40, i32 noundef %45)
  br label %46

46:                                               ; preds = %37, %1
  %47 = load ptr, ptr %3, align 8
  %48 = getelementptr inbounds nuw %struct.ArrayBuildStateArr, ptr %47, i32 0, i32 6
  %49 = load i32, ptr %48, align 4
  call void @pq_sendint32(ptr noundef %4, i32 noundef %49)
  %50 = load ptr, ptr %3, align 8
  %51 = getelementptr inbounds nuw %struct.ArrayBuildStateArr, ptr %50, i32 0, i32 7
  %52 = load i32, ptr %51, align 8
  call void @pq_sendint32(ptr noundef %4, i32 noundef %52)
  %53 = load ptr, ptr %3, align 8
  %54 = getelementptr inbounds nuw %struct.ArrayBuildStateArr, ptr %53, i32 0, i32 8
  %55 = getelementptr inbounds [6 x i32], ptr %54, i64 0, i64 0
  call void @pq_sendbytes(ptr noundef %4, ptr noundef %55, i32 noundef 24)
  %56 = load ptr, ptr %3, align 8
  %57 = getelementptr inbounds nuw %struct.ArrayBuildStateArr, ptr %56, i32 0, i32 9
  %58 = getelementptr inbounds [6 x i32], ptr %57, i64 0, i64 0
  call void @pq_sendbytes(ptr noundef %4, ptr noundef %58, i32 noundef 24)
  %59 = call ptr @pq_endtypsend(ptr noundef %4)
  store ptr %59, ptr %5, align 8
  %60 = load ptr, ptr %5, align 8
  %61 = call i64 @PointerGetDatum(ptr noundef %60)
  call void @llvm.lifetime.end.p0(i64 8, ptr %5) #7
  call void @llvm.lifetime.end.p0(i64 24, ptr %4) #7
  call void @llvm.lifetime.end.p0(i64 8, ptr %3) #7
  ret i64 %61
}