; Function Attrs: nounwind uwtable
define dso_local i64 @array_agg_array_serialize(ptr noundef readonly captures(none) %0) local_unnamed_addr #0 {
  %2 = alloca %struct.StringInfoData, align 8
  call void @llvm.lifetime.start.p0(i64 24, ptr nonnull %2) #10
  %3 = getelementptr inbounds nuw i8, ptr %0, i64 32
  %4 = load i64, ptr %3, align 8
  %5 = inttoptr i64 %4 to ptr
  call void @pq_begintypsend(ptr noundef nonnull %2) #10
  %6 = getelementptr inbounds nuw i8, ptr %5, i64 96
  %7 = load i32, ptr %6, align 8
  call void @enlargeStringInfo(ptr noundef nonnull %2, i32 noundef 4) #10
  call void @llvm.experimental.noalias.scope.decl(metadata !33)
  %8 = call i32 @llvm.bswap.i32(i32 %7)
  %9 = load ptr, ptr %2, align 8, !alias.scope !33
  %10 = getelementptr inbounds nuw i8, ptr %2, i64 8
  %11 = load i32, ptr %10, align 8, !alias.scope !33
  %12 = sext i32 %11 to i64
  %13 = getelementptr inbounds i8, ptr %9, i64 %12
  store i32 %8, ptr %13, align 1, !noalias !33
  %14 = add i32 %11, 4
  store i32 %14, ptr %10, align 8, !alias.scope !33
  %15 = getelementptr inbounds nuw i8, ptr %5, i64 92
  %16 = load i32, ptr %15, align 4
  call void @enlargeStringInfo(ptr noundef nonnull %2, i32 noundef 4) #10
  call void @llvm.experimental.noalias.scope.decl(metadata !36)
  %17 = call i32 @llvm.bswap.i32(i32 %16)
  %18 = load ptr, ptr %2, align 8, !alias.scope !36
  %19 = load i32, ptr %10, align 8, !alias.scope !36
  %20 = sext i32 %19 to i64
  %21 = getelementptr inbounds i8, ptr %18, i64 %20
  store i32 %17, ptr %21, align 1, !noalias !36
  %22 = add i32 %19, 4
  store i32 %22, ptr %10, align 8, !alias.scope !36
  %23 = getelementptr inbounds nuw i8, ptr %5, i64 28
  %24 = load i32, ptr %23, align 4
  call void @enlargeStringInfo(ptr noundef nonnull %2, i32 noundef 4) #10
  call void @llvm.experimental.noalias.scope.decl(metadata !39)
  %25 = call i32 @llvm.bswap.i32(i32 %24)
  %26 = load ptr, ptr %2, align 8, !alias.scope !39
  %27 = load i32, ptr %10, align 8, !alias.scope !39
  %28 = sext i32 %27 to i64
  %29 = getelementptr inbounds i8, ptr %26, i64 %28
  store i32 %25, ptr %29, align 1, !noalias !39
  %30 = add i32 %27, 4
  store i32 %30, ptr %10, align 8, !alias.scope !39
  %31 = getelementptr inbounds nuw i8, ptr %5, i64 8
  %32 = load ptr, ptr %31, align 8
  %33 = load i32, ptr %23, align 4
  call void @pq_sendbytes(ptr noundef nonnull %2, ptr noundef %32, i32 noundef %33) #10
  %34 = getelementptr inbounds nuw i8, ptr %5, i64 24
  %35 = load i32, ptr %34, align 8
  call void @enlargeStringInfo(ptr noundef nonnull %2, i32 noundef 4) #10
  call void @llvm.experimental.noalias.scope.decl(metadata !42)
  %36 = call i32 @llvm.bswap.i32(i32 %35)
  %37 = load ptr, ptr %2, align 8, !alias.scope !42
  %38 = load i32, ptr %10, align 8, !alias.scope !42
  %39 = sext i32 %38 to i64
  %40 = getelementptr inbounds i8, ptr %37, i64 %39
  store i32 %36, ptr %40, align 1, !noalias !42
  %41 = add i32 %38, 4
  store i32 %41, ptr %10, align 8, !alias.scope !42
  %42 = getelementptr inbounds nuw i8, ptr %5, i64 32
  %43 = load i32, ptr %42, align 8
  call void @enlargeStringInfo(ptr noundef nonnull %2, i32 noundef 4) #10
  call void @llvm.experimental.noalias.scope.decl(metadata !45)
  %44 = call i32 @llvm.bswap.i32(i32 %43)
  %45 = load ptr, ptr %2, align 8, !alias.scope !45
  %46 = load i32, ptr %10, align 8, !alias.scope !45
  %47 = sext i32 %46 to i64
  %48 = getelementptr inbounds i8, ptr %45, i64 %47
  store i32 %44, ptr %48, align 1, !noalias !45
  %49 = add i32 %46, 4
  store i32 %49, ptr %10, align 8, !alias.scope !45
  %50 = getelementptr inbounds nuw i8, ptr %5, i64 16
  %51 = load ptr, ptr %50, align 8
  %.not = icmp eq ptr %51, null
  br i1 %.not, label %56, label %52

52:                                               ; preds = %1
  %53 = load i32, ptr %42, align 8
  %54 = add i32 %53, 7
  %55 = sdiv i32 %54, 8
  call void @pq_sendbytes(ptr noundef nonnull %2, ptr noundef nonnull %51, i32 noundef %55) #10
  br label %56

56:                                               ; preds = %52, %1
  %57 = getelementptr inbounds nuw i8, ptr %5, i64 36
  %58 = load i32, ptr %57, align 4
  call void @enlargeStringInfo(ptr noundef nonnull %2, i32 noundef 4) #10
  call void @llvm.experimental.noalias.scope.decl(metadata !48)
  %59 = call i32 @llvm.bswap.i32(i32 %58)
  %60 = load ptr, ptr %2, align 8, !alias.scope !48
  %61 = load i32, ptr %10, align 8, !alias.scope !48
  %62 = sext i32 %61 to i64
  %63 = getelementptr inbounds i8, ptr %60, i64 %62
  store i32 %59, ptr %63, align 1, !noalias !48
  %64 = add i32 %61, 4
  store i32 %64, ptr %10, align 8, !alias.scope !48
  %65 = getelementptr inbounds nuw i8, ptr %5, i64 40
  %66 = load i32, ptr %65, align 8
  call void @enlargeStringInfo(ptr noundef nonnull %2, i32 noundef 4) #10
  call void @llvm.experimental.noalias.scope.decl(metadata !51)
  %67 = call i32 @llvm.bswap.i32(i32 %66)
  %68 = load ptr, ptr %2, align 8, !alias.scope !51
  %69 = load i32, ptr %10, align 8, !alias.scope !51
  %70 = sext i32 %69 to i64
  %71 = getelementptr inbounds i8, ptr %68, i64 %70
  store i32 %67, ptr %71, align 1, !noalias !51
  %72 = add i32 %69, 4
  store i32 %72, ptr %10, align 8, !alias.scope !51
  %73 = getelementptr inbounds nuw i8, ptr %5, i64 44
  call void @pq_sendbytes(ptr noundef nonnull %2, ptr noundef nonnull %73, i32 noundef 24) #10
  %74 = getelementptr inbounds nuw i8, ptr %5, i64 68
  call void @pq_sendbytes(ptr noundef nonnull %2, ptr noundef nonnull %74, i32 noundef 24) #10
  %75 = call ptr @pq_endtypsend(ptr noundef nonnull %2) #10
  %76 = ptrtoint ptr %75 to i64
  call void @llvm.lifetime.end.p0(i64 24, ptr nonnull %2) #10
  ret i64 %76
}